; Function Attrs: cold nounwind optsize uwtable
define internal void @uninit(ptr noundef readonly captures(none) %0) #1 {
  %2 = getelementptr inbounds nuw i8, ptr %0, i64 72
  %3 = load ptr, ptr %2, align 8, !tbaa !4
  %4 = getelementptr inbounds nuw i8, ptr %3, i64 48
  tail call void @av_frame_free(ptr noundef nonnull %4) #12
  %5 = getelementptr inbounds nuw i8, ptr %3, i64 128
  tail call void @av_frame_free(ptr noundef nonnull %5) #12
  %6 = getelementptr inbounds nuw i8, ptr %3, i64 136
  tail call void @av_frame_free(ptr noundef nonnull %6) #12
  %7 = getelementptr inbounds nuw i8, ptr %3, i64 80
  tail call void @av_freep(ptr noundef nonnull %7) #12
  %8 = getelementptr inbounds nuw i8, ptr %3, i64 96
  tail call void @av_freep(ptr noundef nonnull %8) #12
  %9 = getelementptr inbounds nuw i8, ptr %3, i64 104
  tail call void @av_freep(ptr noundef nonnull %9) #12
  %10 = getelementptr inbounds nuw i8, ptr %3, i64 112
  tail call void @av_freep(ptr noundef nonnull %10) #12
  %11 = getelementptr inbounds nuw i8, ptr %3, i64 120
  tail call void @av_freep(ptr noundef nonnull %11) #12
  ret void
}